(lp0
(I0
I4770
tp1
a(I0
I7
tp2
a(I0
I4538
tp3
a(I0
I0
tp4
a(I0
I693
tp5
a(I0
I0
tp6
a(I0
I6148
tp7
a(I0
I0
tp8
a(I0
I6532
tp9
a(I0
I12
tp10
a(I0
I4610
tp11
a(I0
I48
tp12
a(I0
I4384
tp13
a(I0
I0
tp14
a(I0
I5644
tp15
a(I0
I12
tp16
a(I0
I5636
tp17
a(I1
I12
tp18
a(I0
I677
tp19
a(I0
I0
tp20
a(I0
I4512
tp21
a(I0
I0
tp22
a(I0
I6308
tp23
a(I0
I0
tp24
a(I0
I6532
tp25
a(I0
I50
tp26
a(I0
I5636
tp27
a(I1
I26
tp28
a(I0
I4736
tp29
a(I0
I0
tp30
a(I0
I293
tp31
a(I0
I0
tp32
a(I0
I4384
tp33
a(I0
I0
tp34
a(I0
I4752
tp35
a(I0
I0
tp36
a(I0
I6281
tp37
a(I0
I0
tp38
a(I0
I6496
tp39
a(I0
I2
tp40
a(I0
I6002
tp41
a(I0
I0
tp42
a(I0
I4992
tp43
a(I0
I0
tp44
a(I0
I5008
tp45
a(I1
I1
tp46
a(I0
I6002
tp47
ag42
a(I0
I7
tp48
a(I0
I6
tp49
a(I0
I5
tp50
a(I0
I4
tp51
a(I0
I3
tp52
a(I0
I2
tp53
a(I0
I1
tp54
a.