(lp0
(I0
I4738
tp1
a(I0
I36
tp2
a(I0
I6276
tp3
a(I0
I0
tp4
a(I0
I6516
tp5
a(I0
I2
tp6
a(I0
I5636
tp7
a(I0
I2
tp8
a(I0
I0
tp9
a(I0
I0
tp10
a(I0
I4754
tp11
a(I0
I2
tp12
a(I0
I4770
tp13
a(I0
I10
tp14
a(I0
I4802
tp15
a(I0
I2
tp16
a(I0
I1161
tp17
a(I0
I0
tp18
a(I0
I265
tp19
a(I0
I0
tp20
a(I0
I1036
tp21
a(I0
I0
tp22
a(I0
I4496
tp23
a(I0
I0
tp24
a(I0
I677
tp25
a(I0
I0
tp26
a(I0
I4512
tp27
a(I0
I0
tp28
a(I0
I6308
tp29
a(I0
I0
tp30
a(I0
I6532
tp31
a(I0
I2
tp32
a(I0
I5636
tp33
a(I1
I18
tp34
a.